target datalayout = "e-m:e-p270:32:32-p271:32:32-p272:64:64-i64:64-i128:128-f80:128-n8:16:32:64-S128"
target triple = "x86_64-pc-linux-gnu"

%struct.OSQPSolver = type { ptr, ptr, ptr, ptr }
%struct.OSQPWorkspace_ = type { ptr, ptr, ptr, ptr, ptr, ptr, ptr, ptr, ptr, ptr, ptr, ptr, ptr, ptr, ptr, ptr, ptr, ptr, ptr, ptr, ptr, ptr, ptr, ptr, ptr, ptr, double, double, double, ptr, i64, i64, i64, i64, ptr }
%struct.OSQPSettings = type { i64, i32, i64, i64, i64, i64, i64, i64, double, i64, double, double, i64, i64, double, i32, i64, i64, double, double, i64, double, double, double, double, i64, i64, double, double, i64 }

; Function Attrs: nounwind uwtable
define void @update_y(ptr noundef %0) #0 {
  %2 = alloca ptr, align 8
  %3 = alloca ptr, align 8
  %4 = alloca ptr, align 8
  store ptr %0, ptr %2, align 8
  %5 = load ptr, ptr %2, align 8
  %6 = getelementptr inbounds %struct.OSQPSolver, ptr %5, i32 0, i32 0
  %7 = load ptr, ptr %6, align 8
  store ptr %7, ptr %3, align 8
  %8 = load ptr, ptr %2, align 8
  %9 = getelementptr inbounds %struct.OSQPSolver, ptr %8, i32 0, i32 3
  %10 = load ptr, ptr %9, align 8
  store ptr %10, ptr %4, align 8
  %11 = load ptr, ptr %4, align 8
  %12 = getelementptr inbounds %struct.OSQPWorkspace_, ptr %11, i32 0, i32 17
  %13 = load ptr, ptr %12, align 8
  %14 = load ptr, ptr %3, align 8
  %15 = getelementptr inbounds %struct.OSQPSettings, ptr %14, i32 0, i32 11
  %16 = load double, ptr %15, align 8
  %17 = load ptr, ptr %4, align 8
  %18 = getelementptr inbounds %struct.OSQPWorkspace_, ptr %17, i32 0, i32 11
  %19 = load ptr, ptr %18, align 8
  %20 = load ptr, ptr %3, align 8
  %21 = getelementptr inbounds %struct.OSQPSettings, ptr %20, i32 0, i32 11
  %22 = load double, ptr %21, align 8
  %23 = fsub double 1.000000e+00, %22
  %24 = load ptr, ptr %4, align 8
  %25 = getelementptr inbounds %struct.OSQPWorkspace_, ptr %24, i32 0, i32 13
  %26 = load ptr, ptr %25, align 8
  %27 = load ptr, ptr %4, align 8
  %28 = getelementptr inbounds %struct.OSQPWorkspace_, ptr %27, i32 0, i32 8
  %29 = load ptr, ptr %28, align 8
  call void @OSQPVectorf_add_scaled3(ptr noundef %13, double noundef %16, ptr noundef %19, double noundef %23, ptr noundef %26, double noundef -1.000000e+00, ptr noundef %29)
  %30 = load ptr, ptr %3, align 8
  %31 = getelementptr inbounds %struct.OSQPSettings, ptr %30, i32 0, i32 9
  %32 = load i64, ptr %31, align 8
  %33 = icmp ne i64 %32, 0
  br i1 %33, label %34, label %44

34:                                               ; preds = %1
  %35 = load ptr, ptr %4, align 8
  %36 = getelementptr inbounds %struct.OSQPWorkspace_, ptr %35, i32 0, i32 17
  %37 = load ptr, ptr %36, align 8
  %38 = load ptr, ptr %4, align 8
  %39 = getelementptr inbounds %struct.OSQPWorkspace_, ptr %38, i32 0, i32 17
  %40 = load ptr, ptr %39, align 8
  %41 = load ptr, ptr %4, align 8
  %42 = getelementptr inbounds %struct.OSQPWorkspace_, ptr %41, i32 0, i32 3
  %43 = load ptr, ptr %42, align 8
  call void @OSQPVectorf_ew_prod(ptr noundef %37, ptr noundef %40, ptr noundef %43)
  br label %51

44:                                               ; preds = %1
  %45 = load ptr, ptr %4, align 8
  %46 = getelementptr inbounds %struct.OSQPWorkspace_, ptr %45, i32 0, i32 17
  %47 = load ptr, ptr %46, align 8
  %48 = load ptr, ptr %3, align 8
  %49 = getelementptr inbounds %struct.OSQPSettings, ptr %48, i32 0, i32 8
  %50 = load double, ptr %49, align 8
  call void @OSQPVectorf_mult_scalar(ptr noundef %47, double noundef %50)
  br label %51

51:                                               ; preds = %44, %34
  %52 = load ptr, ptr %4, align 8
  %53 = getelementptr inbounds %struct.OSQPWorkspace_, ptr %52, i32 0, i32 7
  %54 = load ptr, ptr %53, align 8
  %55 = load ptr, ptr %4, align 8
  %56 = getelementptr inbounds %struct.OSQPWorkspace_, ptr %55, i32 0, i32 7
  %57 = load ptr, ptr %56, align 8
  %58 = load ptr, ptr %4, align 8
  %59 = getelementptr inbounds %struct.OSQPWorkspace_, ptr %58, i32 0, i32 17
  %60 = load ptr, ptr %59, align 8
  call void @OSQPVectorf_plus(ptr noundef %54, ptr noundef %57, ptr noundef %60)
  ret void
}