; Function Attrs: nounwind uwtable
define void @update_y(ptr noundef readonly captures(none) %0) local_unnamed_addr #0 {
  %2 = load ptr, ptr %0, align 8
  %3 = getelementptr inbounds nuw i8, ptr %0, i64 24
  %4 = load ptr, ptr %3, align 8
  %5 = getelementptr inbounds nuw i8, ptr %4, i64 136
  %6 = load ptr, ptr %5, align 8
  %7 = getelementptr inbounds nuw i8, ptr %2, i64 88
  %8 = load double, ptr %7, align 8
  %9 = getelementptr inbounds nuw i8, ptr %4, i64 88
  %10 = load ptr, ptr %9, align 8
  %11 = fsub double 1.000000e+00, %8
  %12 = getelementptr inbounds nuw i8, ptr %4, i64 104
  %13 = load ptr, ptr %12, align 8
  %14 = getelementptr inbounds nuw i8, ptr %4, i64 64
  %15 = load ptr, ptr %14, align 8
  tail call void @OSQPVectorf_add_scaled3(ptr noundef %6, double noundef %8, ptr noundef %10, double noundef %11, ptr noundef %13, double noundef -1.000000e+00, ptr noundef %15) #9
  %16 = getelementptr inbounds nuw i8, ptr %2, i64 72
  %17 = load i64, ptr %16, align 8
  %.not = icmp eq i64 %17, 0
  %18 = load ptr, ptr %5, align 8
  br i1 %.not, label %22, label %19

19:                                               ; preds = %1
  %20 = getelementptr inbounds nuw i8, ptr %4, i64 24
  %21 = load ptr, ptr %20, align 8
  tail call void @OSQPVectorf_ew_prod(ptr noundef %18, ptr noundef %18, ptr noundef %21) #9
  br label %25

22:                                               ; preds = %1
  %23 = getelementptr inbounds nuw i8, ptr %2, i64 64
  %24 = load double, ptr %23, align 8
  tail call void @OSQPVectorf_mult_scalar(ptr noundef %18, double noundef %24) #9
  br label %25

25:                                               ; preds = %22, %19
  %26 = getelementptr inbounds nuw i8, ptr %4, i64 56
  %27 = load ptr, ptr %26, align 8
  %28 = load ptr, ptr %5, align 8
  tail call void @OSQPVectorf_plus(ptr noundef %27, ptr noundef %27, ptr noundef %28) #9
  ret void
}